target datalayout = "e-m:e-p270:32:32-p271:32:32-p272:64:64-i64:64-i128:128-f80:128-n8:16:32:64-S128"
target triple = "x86_64-pc-linux-gnu"

%"class.boost::log::v2_mt_posix::attributes::named_scope_list" = type <{ %"struct.boost::log::v2_mt_posix::attributes::aux::named_scope_list_node", i64, i8, [7 x i8] }>
%"struct.boost::log::v2_mt_posix::attributes::aux::named_scope_list_node" = type { ptr, ptr }
%"class.boost::log::v2_mt_posix::attributes::named_scope_list::iter.0" = type { ptr }

; Function Attrs: mustprogress nounwind uwtable
define linkonce_odr hidden void @_ZNSt15__new_allocatorIN5boost3log11v2_mt_posix10attributes17named_scope_entryEE10deallocateEPS4_m(ptr noundef nonnull align 1 dereferenceable(1) %0, ptr noundef %1, i64 noundef %2) #2 comdat align 2 {
  %4 = alloca ptr, align 8
  %5 = alloca ptr, align 8
  %6 = alloca i64, align 8
  store ptr %0, ptr %4, align 8, !tbaa !3
  store ptr %1, ptr %5, align 8, !tbaa !3
  store i64 %2, ptr %6, align 8, !tbaa !19
  %7 = load ptr, ptr %5, align 8, !tbaa !3
  %8 = load i64, ptr %6, align 8, !tbaa !19
  %9 = mul i64 %8, 56
  call void @_ZdlPvm(ptr noundef %7, i64 noundef %9) #21
  ret void
}

; Function Attrs: mustprogress nounwind uwtable
define linkonce_odr hidden void @_ZNSt15__new_allocatorIN5boost3log11v2_mt_posix10attributes17named_scope_entryEE7destroyIS4_EEvPT_(ptr noundef nonnull align 1 dereferenceable(1) %0, ptr noundef %1) #2 comdat align 2 {
  %3 = alloca ptr, align 8
  %4 = alloca ptr, align 8
  store ptr %0, ptr %3, align 8, !tbaa !3
  store ptr %1, ptr %4, align 8, !tbaa !3
  ret void
}

; Function Attrs: mustprogress nounwind uwtable
define linkonce_odr hidden void @_ZN5boost3log11v2_mt_posix10attributes16named_scope_list4iterILb0EEC2ERKS5_(ptr noundef nonnull align 8 dereferenceable(8) %0, ptr noundef nonnull align 8 dereferenceable(8) %1) unnamed_addr #2 comdat align 2 {
  %3 = alloca ptr, align 8
  %4 = alloca ptr, align 8
  store ptr %0, ptr %3, align 8, !tbaa !3
  store ptr %1, ptr %4, align 8, !tbaa !3
  %5 = load ptr, ptr %3, align 8
  %6 = getelementptr inbounds nuw %"class.boost::log::v2_mt_posix::attributes::named_scope_list::iter.0", ptr %5, i32 0, i32 0
  %7 = load ptr, ptr %4, align 8, !tbaa !3
  %8 = getelementptr inbounds nuw %"class.boost::log::v2_mt_posix::attributes::named_scope_list::iter.0", ptr %7, i32 0, i32 0
  %9 = load ptr, ptr %8, align 8, !tbaa !23
  store ptr %9, ptr %6, align 8, !tbaa !23
  ret void
}

; Function Attrs: noinline noreturn nounwind uwtable
define linkonce_odr hidden void @__clang_call_terminate(ptr noundef %0) #4 comdat {
  %2 = call ptr @__cxa_begin_catch(ptr %0) #17
  call void @_ZSt9terminatev() #19
  unreachable
}

; Function Attrs: mustprogress nounwind uwtable
define linkonce_odr hidden void @_ZNSt15__new_allocatorIN5boost3log11v2_mt_posix10attributes17named_scope_entryEED2Ev(ptr noundef nonnull align 1 dereferenceable(1) %0) unnamed_addr #2 comdat align 2 {
  %2 = alloca ptr, align 8
  store ptr %0, ptr %2, align 8, !tbaa !3
  ret void
}

; Function Attrs: mustprogress uwtable
define linkonce_odr hidden void @_ZNSt16allocator_traitsISaIN5boost3log11v2_mt_posix10attributes17named_scope_entryEEE10deallocateERS5_PS4_m(ptr noundef nonnull align 1 dereferenceable(1) %0, ptr noundef %1, i64 noundef %2) #1 comdat align 2 {
  %4 = alloca ptr, align 8
  %5 = alloca ptr, align 8
  %6 = alloca i64, align 8
  store ptr %0, ptr %4, align 8, !tbaa !3
  store ptr %1, ptr %5, align 8, !tbaa !3
  store i64 %2, ptr %6, align 8, !tbaa !19
  %7 = load ptr, ptr %4, align 8, !tbaa !3
  %8 = load ptr, ptr %5, align 8, !tbaa !3
  %9 = load i64, ptr %6, align 8, !tbaa !19
  call void @_ZNSt15__new_allocatorIN5boost3log11v2_mt_posix10attributes17named_scope_entryEE10deallocateEPS4_m(ptr noundef nonnull align 1 dereferenceable(1) %7, ptr noundef %8, i64 noundef %9)
  ret void
}

; Function Attrs: mustprogress nounwind uwtable
define linkonce_odr hidden void @_ZNSt16allocator_traitsISaIN5boost3log11v2_mt_posix10attributes17named_scope_entryEEE7destroyIS4_EEvRS5_PT_(ptr noundef nonnull align 1 dereferenceable(1) %0, ptr noundef %1) #2 comdat align 2 {
  %3 = alloca ptr, align 8
  %4 = alloca ptr, align 8
  store ptr %0, ptr %3, align 8, !tbaa !3
  store ptr %1, ptr %4, align 8, !tbaa !3
  %5 = load ptr, ptr %3, align 8, !tbaa !3
  %6 = load ptr, ptr %4, align 8, !tbaa !3
  call void @_ZNSt15__new_allocatorIN5boost3log11v2_mt_posix10attributes17named_scope_entryEE7destroyIS4_EEvPT_(ptr noundef nonnull align 1 dereferenceable(1) %5, ptr noundef %6) #17
  ret void
}

; Function Attrs: mustprogress nounwind uwtable
define linkonce_odr hidden noundef nonnull align 8 dereferenceable(56) ptr @_ZNK5boost3log11v2_mt_posix10attributes16named_scope_list4iterILb0EEdeEv(ptr noundef nonnull align 8 dereferenceable(8) %0) #2 comdat align 2 {
  %2 = alloca ptr, align 8
  store ptr %0, ptr %2, align 8, !tbaa !3
  %3 = load ptr, ptr %2, align 8
  %4 = getelementptr inbounds nuw %"class.boost::log::v2_mt_posix::attributes::named_scope_list::iter.0", ptr %3, i32 0, i32 0
  %5 = load ptr, ptr %4, align 8, !tbaa !23
  ret ptr %5
}

; Function Attrs: mustprogress uwtable
define linkonce_odr hidden void @_ZN5boost3log11v2_mt_posix10attributes16named_scope_list4iterILb0EEppEi(ptr dead_on_unwind noalias writable sret(%"class.boost::log::v2_mt_posix::attributes::named_scope_list::iter.0") align 8 %0, ptr noundef nonnull align 8 dereferenceable(8) %1, i32 noundef %2) #1 comdat align 2 {
  %4 = alloca ptr, align 8
  %5 = alloca ptr, align 8
  %6 = alloca i32, align 4
  store ptr %0, ptr %4, align 8
  store ptr %1, ptr %5, align 8, !tbaa !3
  store i32 %2, ptr %6, align 4, !tbaa !25
  %7 = load ptr, ptr %5, align 8
  call void @_ZN5boost3log11v2_mt_posix10attributes16named_scope_list4iterILb0EEC2ERKS5_(ptr noundef nonnull align 8 dereferenceable(8) %0, ptr noundef nonnull align 8 dereferenceable(8) %7)
  %8 = getelementptr inbounds nuw %"class.boost::log::v2_mt_posix::attributes::named_scope_list::iter.0", ptr %7, i32 0, i32 0
  %9 = load ptr, ptr %8, align 8, !tbaa !23
  %10 = getelementptr inbounds nuw %"struct.boost::log::v2_mt_posix::attributes::aux::named_scope_list_node", ptr %9, i32 0, i32 1
  %11 = load ptr, ptr %10, align 8, !tbaa !16
  %12 = getelementptr inbounds nuw %"class.boost::log::v2_mt_posix::attributes::named_scope_list::iter.0", ptr %7, i32 0, i32 0
  store ptr %11, ptr %12, align 8, !tbaa !23
  ret void
}

; Function Attrs: mustprogress nounwind uwtable
define linkonce_odr hidden noundef zeroext i1 @_ZNK5boost3log11v2_mt_posix10attributes16named_scope_list4iterILb0EEneILb0EEEbRKNS4_IXT_EEE(ptr noundef nonnull align 8 dereferenceable(8) %0, ptr noundef nonnull align 8 dereferenceable(8) %1) #2 comdat align 2 {
  %3 = alloca ptr, align 8
  %4 = alloca ptr, align 8
  store ptr %0, ptr %3, align 8, !tbaa !3
  store ptr %1, ptr %4, align 8, !tbaa !3
  %5 = load ptr, ptr %3, align 8
  %6 = getelementptr inbounds nuw %"class.boost::log::v2_mt_posix::attributes::named_scope_list::iter.0", ptr %5, i32 0, i32 0
  %7 = load ptr, ptr %6, align 8, !tbaa !23
  %8 = load ptr, ptr %4, align 8, !tbaa !3
  %9 = getelementptr inbounds nuw %"class.boost::log::v2_mt_posix::attributes::named_scope_list::iter.0", ptr %8, i32 0, i32 0
  %10 = load ptr, ptr %9, align 8, !tbaa !23
  %11 = icmp ne ptr %7, %10
  ret i1 %11
}

; Function Attrs: mustprogress nounwind uwtable
define linkonce_odr hidden void @_ZN5boost3log11v2_mt_posix10attributes16named_scope_list4iterILb0EEC2EPNS2_3aux21named_scope_list_nodeE(ptr noundef nonnull align 8 dereferenceable(8) %0, ptr noundef %1) unnamed_addr #2 comdat align 2 {
  %3 = alloca ptr, align 8
  %4 = alloca ptr, align 8
  store ptr %0, ptr %3, align 8, !tbaa !3
  store ptr %1, ptr %4, align 8, !tbaa !3
  %5 = load ptr, ptr %3, align 8
  %6 = getelementptr inbounds nuw %"class.boost::log::v2_mt_posix::attributes::named_scope_list::iter.0", ptr %5, i32 0, i32 0
  %7 = load ptr, ptr %4, align 8, !tbaa !3
  store ptr %7, ptr %6, align 8, !tbaa !23
  ret void
}

; Function Attrs: mustprogress nounwind uwtable
define void @_ZN5boost3log11v2_mt_posix10attributes16named_scope_listD2Ev(ptr noundef nonnull align 8 dereferenceable(25) %0) unnamed_addr #2 align 2 personality ptr @__gxx_personality_v0 {
  %2 = alloca ptr, align 8
  %3 = alloca %"class.boost::log::v2_mt_posix::attributes::named_scope_list::iter.0", align 8
  %4 = alloca %"class.boost::log::v2_mt_posix::attributes::named_scope_list::iter.0", align 8
  %5 = alloca %"class.boost::log::v2_mt_posix::attributes::named_scope_list::iter.0", align 8
  store ptr %0, ptr %2, align 8, !tbaa !3
  %6 = load ptr, ptr %2, align 8
  %7 = getelementptr inbounds nuw %"class.boost::log::v2_mt_posix::attributes::named_scope_list", ptr %6, i32 0, i32 2
  %8 = load i8, ptr %7, align 8, !tbaa !14, !range !29, !noundef !30
  %9 = trunc i8 %8 to i1
  br i1 %9, label %10, label %31

10:                                               ; preds = %1
  call void @llvm.lifetime.start.p0(i64 8, ptr %3) #17
  %11 = getelementptr inbounds nuw %"class.boost::log::v2_mt_posix::attributes::named_scope_list", ptr %6, i32 0, i32 0
  %12 = getelementptr inbounds nuw %"struct.boost::log::v2_mt_posix::attributes::aux::named_scope_list_node", ptr %11, i32 0, i32 1
  %13 = load ptr, ptr %12, align 8, !tbaa !20
  invoke void @_ZN5boost3log11v2_mt_posix10attributes16named_scope_list4iterILb0EEC2EPNS2_3aux21named_scope_list_nodeE(ptr noundef nonnull align 8 dereferenceable(8) %3, ptr noundef %13)
          to label %14 unwind label %32

14:                                               ; preds = %10
  call void @llvm.lifetime.start.p0(i64 8, ptr %4) #17
  %15 = getelementptr inbounds nuw %"class.boost::log::v2_mt_posix::attributes::named_scope_list", ptr %6, i32 0, i32 0
  invoke void @_ZN5boost3log11v2_mt_posix10attributes16named_scope_list4iterILb0EEC2EPNS2_3aux21named_scope_list_nodeE(ptr noundef nonnull align 8 dereferenceable(8) %4, ptr noundef %15)
          to label %16 unwind label %32

16:                                               ; preds = %14
  br label %17

17:                                               ; preds = %23, %16
  %18 = invoke noundef zeroext i1 @_ZNK5boost3log11v2_mt_posix10attributes16named_scope_list4iterILb0EEneILb0EEEbRKNS4_IXT_EEE(ptr noundef nonnull align 8 dereferenceable(8) %3, ptr noundef nonnull align 8 dereferenceable(8) %4)
          to label %19 unwind label %32

19:                                               ; preds = %17
  br i1 %18, label %20, label %24

20:                                               ; preds = %19
  call void @llvm.lifetime.start.p0(i64 8, ptr %5) #17
  invoke void @_ZN5boost3log11v2_mt_posix10attributes16named_scope_list4iterILb0EEppEi(ptr dead_on_unwind writable sret(%"class.boost::log::v2_mt_posix::attributes::named_scope_list::iter.0") align 8 %5, ptr noundef nonnull align 8 dereferenceable(8) %3, i32 noundef 0)
          to label %21 unwind label %32

21:                                               ; preds = %20
  %22 = invoke noundef nonnull align 8 dereferenceable(56) ptr @_ZNK5boost3log11v2_mt_posix10attributes16named_scope_list4iterILb0EEdeEv(ptr noundef nonnull align 8 dereferenceable(8) %5)
          to label %23 unwind label %32

23:                                               ; preds = %21
  call void @_ZNSt16allocator_traitsISaIN5boost3log11v2_mt_posix10attributes17named_scope_entryEEE7destroyIS4_EEvRS5_PT_(ptr noundef nonnull align 1 dereferenceable(1) %6, ptr noundef %22) #17
  call void @llvm.lifetime.end.p0(i64 8, ptr %5) #17
  br label %17, !llvm.loop !41

24:                                               ; preds = %19
  %25 = getelementptr inbounds nuw %"class.boost::log::v2_mt_posix::attributes::named_scope_list", ptr %6, i32 0, i32 0
  %26 = getelementptr inbounds nuw %"struct.boost::log::v2_mt_posix::attributes::aux::named_scope_list_node", ptr %25, i32 0, i32 1
  %27 = load ptr, ptr %26, align 8, !tbaa !20
  %28 = getelementptr inbounds nuw %"class.boost::log::v2_mt_posix::attributes::named_scope_list", ptr %6, i32 0, i32 1
  %29 = load i64, ptr %28, align 8, !tbaa !9
  invoke void @_ZNSt16allocator_traitsISaIN5boost3log11v2_mt_posix10attributes17named_scope_entryEEE10deallocateERS5_PS4_m(ptr noundef nonnull align 1 dereferenceable(1) %6, ptr noundef %27, i64 noundef %29)
          to label %30 unwind label %32

30:                                               ; preds = %24
  call void @llvm.lifetime.end.p0(i64 8, ptr %4) #17
  call void @llvm.lifetime.end.p0(i64 8, ptr %3) #17
  br label %31

31:                                               ; preds = %30, %1
  call void @_ZNSt15__new_allocatorIN5boost3log11v2_mt_posix10attributes17named_scope_entryEED2Ev(ptr noundef nonnull align 1 dereferenceable(1) %6) #17
  ret void

32:                                               ; preds = %24, %21, %20, %17, %14, %10
  %33 = landingpad { ptr, i32 }
          catch ptr null
  %34 = extractvalue { ptr, i32 } %33, 0
  call void @__clang_call_terminate(ptr %34) #19
  unreachable
}