; Function Attrs: mustprogress nounwind uwtable
define void @_ZN5boost3log11v2_mt_posix10attributes16named_scope_listD2Ev(ptr nocapture noundef nonnull readonly align 8 dereferenceable(25) %0) unnamed_addr #9 align 2 personality ptr @__gxx_personality_v0 {
  %2 = getelementptr inbounds nuw i8, ptr %0, i64 24
  %3 = load i8, ptr %2, align 8, !tbaa !24, !range !35, !noundef !36
  %4 = trunc nuw i8 %3 to i1
  br i1 %4, label %._crit_edge, label %10

._crit_edge:                                      ; preds = %1
  %5 = getelementptr inbounds nuw i8, ptr %0, i64 8
  %6 = load ptr, ptr %5, align 8, !tbaa !33
  %7 = getelementptr inbounds nuw i8, ptr %0, i64 16
  %8 = load i64, ptr %7, align 8, !tbaa !20
  %9 = mul i64 %8, 56
  tail call void @_ZdlPvm(ptr noundef %6, i64 noundef %9) #23
  br label %10

10:                                               ; preds = %._crit_edge, %1
  ret void
}